target datalayout = "e-m:e-p270:32:32-p271:32:32-p272:64:64-i64:64-i128:128-f80:128-n8:16:32:64-S128"
target triple = "x86_64-unknown-linux-gnu"

%"class.icu_75::SortKeyByteSink" = type <{ %"class.icu_75::ByteSink", ptr, i32, i32, i32, [4 x i8] }>
%"class.icu_75::ByteSink" = type { ptr }

; Function Attrs: mustprogress nounwind uwtable
define internal void @_ZN6icu_7512_GLOBAL__N_120FixedSortKeyByteSink20AppendBeyondCapacityEPKcii(ptr noundef nonnull align 8 dereferenceable(28) %this, ptr noundef %bytes, i32 noundef %0, i32 noundef %length) unnamed_addr #0 align 2 {
entry:
  %this.addr = alloca ptr, align 8
  %bytes.addr = alloca ptr, align 8
  %.addr = alloca i32, align 4
  %length.addr = alloca i32, align 4
  %available = alloca i32, align 4
  store ptr %this, ptr %this.addr, align 8
  store ptr %bytes, ptr %bytes.addr, align 8
  store i32 %0, ptr %.addr, align 4
  store i32 %length, ptr %length.addr, align 4
  %this1 = load ptr, ptr %this.addr, align 8
  %capacity_ = getelementptr inbounds %"class.icu_75::SortKeyByteSink", ptr %this1, i32 0, i32 2
  %1 = load i32, ptr %capacity_, align 8
  %2 = load i32, ptr %length.addr, align 4
  %sub = sub nsw i32 %1, %2
  store i32 %sub, ptr %available, align 4
  %3 = load i32, ptr %available, align 4
  %cmp = icmp sgt i32 %3, 0
  br i1 %cmp, label %if.then, label %if.end

if.then:                                          ; preds = %entry
  br label %do.body

do.body:                                          ; preds = %if.then
  %buffer_ = getelementptr inbounds %"class.icu_75::SortKeyByteSink", ptr %this1, i32 0, i32 1
  %4 = load ptr, ptr %buffer_, align 8
  %5 = load i32, ptr %length.addr, align 4
  %idx.ext = sext i32 %5 to i64
  %add.ptr = getelementptr inbounds i8, ptr %4, i64 %idx.ext
  %6 = load ptr, ptr %bytes.addr, align 8
  %7 = load i32, ptr %available, align 4
  %conv = sext i32 %7 to i64
  call void @llvm.memcpy.p0.p0.i64(ptr align 1 %add.ptr, ptr align 1 %6, i64 %conv, i1 false)
  br label %do.end

do.end:                                           ; preds = %do.body
  br label %if.end

if.end:                                           ; preds = %do.end, %entry
  ret void
}