; Function Attrs: mustprogress nofree norecurse nosync nounwind willreturn memory(readwrite, inaccessiblemem: none) uwtable
define internal void @_ZN6icu_7512_GLOBAL__N_120FixedSortKeyByteSink20AppendBeyondCapacityEPKcii(ptr nocapture noundef nonnull readonly align 8 dereferenceable(28) %this, ptr nocapture noundef readonly %bytes, i32 %0, i32 noundef %length) unnamed_addr #11 align 2 {
entry:
  %capacity_ = getelementptr inbounds i8, ptr %this, i64 16
  %1 = load i32, ptr %capacity_, align 8
  %sub = sub nsw i32 %1, %length
  %cmp = icmp sgt i32 %sub, 0
  br i1 %cmp, label %do.body, label %if.end

do.body:                                          ; preds = %entry
  %buffer_ = getelementptr inbounds i8, ptr %this, i64 8
  %2 = load ptr, ptr %buffer_, align 8
  %idx.ext = sext i32 %length to i64
  %add.ptr = getelementptr inbounds i8, ptr %2, i64 %idx.ext
  %conv = zext nneg i32 %sub to i64
  tail call void @llvm.memcpy.p0.p0.i64(ptr align 1 %add.ptr, ptr align 1 %bytes, i64 %conv, i1 false)
  br label %if.end

if.end:                                           ; preds = %do.body, %entry
  ret void
}